target datalayout = "e-m:e-p270:32:32-p271:32:32-p272:64:64-i64:64-i128:128-f80:128-n8:16:32:64-S128"
target triple = "x86_64-pc-linux-gnu"

%struct.evp_pkey_st = type { i32, i32, ptr, ptr, ptr, %union.legacy_pkey_st, %union.legacy_pkey_st, %struct.CRYPTO_REF_COUNT, ptr, ptr, i32, i8, %struct.crypto_ex_data_st, ptr, ptr, i64, ptr, i64, %struct.anon }
%union.legacy_pkey_st = type { ptr }
%struct.CRYPTO_REF_COUNT = type { i32 }
%struct.crypto_ex_data_st = type { ptr, ptr }
%struct.anon = type { i32, i32, i32 }

; Function Attrs: nounwind uwtable
define ptr @EVP_PKEY_get0_type_name(ptr noundef %0) #0 {
  %2 = alloca ptr, align 8
  %3 = alloca ptr, align 8
  %4 = alloca ptr, align 8
  %5 = alloca ptr, align 8
  %6 = alloca i32, align 4
  store ptr %0, ptr %3, align 8, !tbaa !12
  call void @llvm.lifetime.start.p0(i64 8, ptr %4) #3
  call void @llvm.lifetime.start.p0(i64 8, ptr %5) #3
  store ptr null, ptr %5, align 8, !tbaa !10
  %7 = load ptr, ptr %3, align 8, !tbaa !12
  %8 = getelementptr inbounds nuw %struct.evp_pkey_st, ptr %7, i32 0, i32 13
  %9 = load ptr, ptr %8, align 8, !tbaa !38
  %10 = icmp ne ptr %9, null
  br i1 %10, label %11, label %16

11:                                               ; preds = %1
  %12 = load ptr, ptr %3, align 8, !tbaa !12
  %13 = getelementptr inbounds nuw %struct.evp_pkey_st, ptr %12, i32 0, i32 13
  %14 = load ptr, ptr %13, align 8, !tbaa !38
  %15 = call ptr @EVP_KEYMGMT_get0_name(ptr noundef %14)
  store ptr %15, ptr %2, align 8
  store i32 1, ptr %6, align 4
  br label %26

16:                                               ; preds = %1
  %17 = load ptr, ptr %3, align 8, !tbaa !12
  %18 = call ptr @EVP_PKEY_get0_asn1(ptr noundef %17)
  store ptr %18, ptr %4, align 8, !tbaa !43
  %19 = load ptr, ptr %4, align 8, !tbaa !43
  %20 = icmp ne ptr %19, null
  br i1 %20, label %21, label %24

21:                                               ; preds = %16
  %22 = load ptr, ptr %4, align 8, !tbaa !43
  %23 = call i32 @EVP_PKEY_asn1_get0_info(ptr noundef null, ptr noundef null, ptr noundef null, ptr noundef null, ptr noundef %5, ptr noundef %22)
  br label %24

24:                                               ; preds = %21, %16
  %25 = load ptr, ptr %5, align 8, !tbaa !10
  store ptr %25, ptr %2, align 8
  store i32 1, ptr %6, align 4
  br label %26

26:                                               ; preds = %24, %11
  call void @llvm.lifetime.end.p0(i64 8, ptr %5) #3
  call void @llvm.lifetime.end.p0(i64 8, ptr %4) #3
  %27 = load ptr, ptr %2, align 8
  ret ptr %27
}