; Function Attrs: nounwind uwtable
define ptr @EVP_PKEY_get0_type_name(ptr noundef %0) local_unnamed_addr #0 {
  %2 = alloca ptr, align 8
  call void @llvm.lifetime.start.p0(i64 8, ptr nonnull %2) #3
  store ptr null, ptr %2, align 8, !tbaa !28
  %3 = getelementptr inbounds nuw i8, ptr %0, i64 96
  %4 = load ptr, ptr %3, align 8, !tbaa !30
  %.not = icmp eq ptr %4, null
  br i1 %.not, label %7, label %5

5:                                                ; preds = %1
  %6 = tail call ptr @EVP_KEYMGMT_get0_name(ptr noundef nonnull %4) #3
  br label %11

7:                                                ; preds = %1
  %8 = tail call ptr @EVP_PKEY_get0_asn1(ptr noundef nonnull %0) #3
  %.not8 = icmp eq ptr %8, null
  br i1 %.not8, label %11, label %9

9:                                                ; preds = %7
  %10 = call i32 @EVP_PKEY_asn1_get0_info(ptr noundef null, ptr noundef null, ptr noundef null, ptr noundef null, ptr noundef nonnull %2, ptr noundef nonnull %8) #3
  %.pre = load ptr, ptr %2, align 8, !tbaa !28
  br label %11

11:                                               ; preds = %7, %9, %5
  %.0 = phi ptr [ %6, %5 ], [ %.pre, %9 ], [ null, %7 ]
  call void @llvm.lifetime.end.p0(i64 8, ptr nonnull %2) #3
  ret ptr %.0
}